target datalayout = "e-m:e-p270:32:32-p271:32:32-p272:64:64-i64:64-i128:128-f80:128-n8:16:32:64-S128"
target triple = "x86_64-pc-linux-gnu"

%"class.rocksdb::PlainTableBloomV1" = type { i32, i32, i32, ptr }
%"class.rocksdb::BloomBlockBuilder" = type { %"class.rocksdb::PlainTableBloomV1" }
%"class.rocksdb::Slice" = type { ptr, i64 }

; Function Attrs: mustprogress nounwind uwtable
define linkonce_odr void @_ZN7rocksdb5SliceC2EPKcm(ptr noundef nonnull align 8 dereferenceable(16) %0, ptr noundef %1, i64 noundef %2) unnamed_addr #3 comdat align 2 {
  %4 = alloca ptr, align 8
  %5 = alloca ptr, align 8
  %6 = alloca i64, align 8
  store ptr %0, ptr %4, align 8, !tbaa !48
  store ptr %1, ptr %5, align 8, !tbaa !27
  store i64 %2, ptr %6, align 8, !tbaa !4
  %7 = load ptr, ptr %4, align 8
  %8 = getelementptr inbounds nuw %"class.rocksdb::Slice", ptr %7, i32 0, i32 0
  %9 = load ptr, ptr %5, align 8, !tbaa !27
  store ptr %9, ptr %8, align 8, !tbaa !49
  %10 = getelementptr inbounds nuw %"class.rocksdb::Slice", ptr %7, i32 0, i32 1
  %11 = load i64, ptr %6, align 8, !tbaa !4
  store i64 %11, ptr %10, align 8, !tbaa !51
  ret void
}

; Function Attrs: mustprogress nounwind uwtable
define linkonce_odr noundef i32 @_ZNK7rocksdb17PlainTableBloomV112GetTotalBitsEv(ptr noundef nonnull align 8 dereferenceable(24) %0) #3 comdat align 2 {
  %2 = alloca ptr, align 8
  store ptr %0, ptr %2, align 8, !tbaa !17
  %3 = load ptr, ptr %2, align 8
  %4 = getelementptr inbounds nuw %"class.rocksdb::PlainTableBloomV1", ptr %3, i32 0, i32 0
  %5 = load i32, ptr %4, align 8, !tbaa !21
  ret i32 %5
}

; Function Attrs: mustprogress uwtable
define linkonce_odr { ptr, i64 } @_ZNK7rocksdb17PlainTableBloomV110GetRawDataEv(ptr noundef nonnull align 8 dereferenceable(24) %0) #5 comdat align 2 {
  %2 = alloca %"class.rocksdb::Slice", align 8
  %3 = alloca ptr, align 8
  store ptr %0, ptr %3, align 8, !tbaa !17
  %4 = load ptr, ptr %3, align 8
  %5 = getelementptr inbounds nuw %"class.rocksdb::PlainTableBloomV1", ptr %4, i32 0, i32 3
  %6 = load ptr, ptr %5, align 8, !tbaa !26
  %7 = call noundef i32 @_ZNK7rocksdb17PlainTableBloomV112GetTotalBitsEv(ptr noundef nonnull align 8 dereferenceable(24) %4)
  %8 = udiv i32 %7, 8
  %9 = zext i32 %8 to i64
  call void @_ZN7rocksdb5SliceC2EPKcm(ptr noundef nonnull align 8 dereferenceable(16) %2, ptr noundef %6, i64 noundef %9)
  %10 = load { ptr, i64 }, ptr %2, align 8
  ret { ptr, i64 } %10
}

; Function Attrs: mustprogress uwtable
define { ptr, i64 } @_ZN7rocksdb17BloomBlockBuilder6FinishEv(ptr noundef nonnull align 8 dereferenceable(24) %0) #5 align 2 {
  %2 = alloca %"class.rocksdb::Slice", align 8
  %3 = alloca ptr, align 8
  store ptr %0, ptr %3, align 8, !tbaa !34
  %4 = load ptr, ptr %3, align 8
  %5 = getelementptr inbounds nuw %"class.rocksdb::BloomBlockBuilder", ptr %4, i32 0, i32 0
  %6 = call { ptr, i64 } @_ZNK7rocksdb17PlainTableBloomV110GetRawDataEv(ptr noundef nonnull align 8 dereferenceable(24) %5)
  %7 = getelementptr inbounds nuw { ptr, i64 }, ptr %2, i32 0, i32 0
  %8 = extractvalue { ptr, i64 } %6, 0
  store ptr %8, ptr %7, align 8
  %9 = getelementptr inbounds nuw { ptr, i64 }, ptr %2, i32 0, i32 1
  %10 = extractvalue { ptr, i64 } %6, 1
  store i64 %10, ptr %9, align 8
  %11 = load { ptr, i64 }, ptr %2, align 8
  ret { ptr, i64 } %11
}