; Function Attrs: mustprogress nofree norecurse nosync nounwind willreturn memory(argmem: read) uwtable
define { ptr, i64 } @_ZN7rocksdb17BloomBlockBuilder6FinishEv(ptr noundef nonnull readonly align 8 captures(none) dereferenceable(24) %0) local_unnamed_addr #7 align 2 {
  %2 = getelementptr inbounds nuw i8, ptr %0, i64 16
  %3 = load ptr, ptr %2, align 8, !tbaa !17
  %4 = load i32, ptr %0, align 8, !tbaa !11
  %5 = lshr i32 %4, 3
  %6 = zext nneg i32 %5 to i64
  %.fca.0.insert.i = insertvalue { ptr, i64 } poison, ptr %3, 0
  %.fca.1.insert.i = insertvalue { ptr, i64 } %.fca.0.insert.i, i64 %6, 1
  ret { ptr, i64 } %.fca.1.insert.i
}